; Function Attrs: nounwind uwtable
define dso_local nonnull ptr @GetFdwRoutineByRelId(i32 noundef %0) local_unnamed_addr #0 {
  %2 = zext i32 %0 to i64
  %3 = tail call ptr @SearchSysCache1(i32 noundef 33, i64 noundef %2) #8
  %.not.i = icmp eq ptr %3, null
  br i1 %.not.i, label %4, label %GetForeignServerIdByRelId.exit

4:                                                ; preds = %1
  %5 = tail call zeroext i1 @errstart_cold(i32 noundef 21, ptr noundef null) #9
  tail call void @llvm.assume(i1 %5)
  %6 = tail call i32 (ptr, ...) @errmsg_internal(ptr noundef nonnull @.str.5, i32 noundef %0) #8
  tail call void @errfinish(ptr noundef nonnull @.str.1, i32 noundef 363, ptr noundef nonnull @__func__.GetForeignServerIdByRelId) #8
  unreachable

GetForeignServerIdByRelId.exit:                   ; preds = %1
  %7 = getelementptr i8, ptr %3, i64 16
  %.val.i = load ptr, ptr %7, align 8
  %8 = getelementptr inbounds nuw i8, ptr %.val.i, i64 22
  %9 = load i8, ptr %8, align 2
  %10 = zext i8 %9 to i64
  %11 = getelementptr inbounds nuw i8, ptr %.val.i, i64 %10
  %12 = getelementptr inbounds nuw i8, ptr %11, i64 4
  %13 = load i32, ptr %12, align 4
  tail call void @ReleaseSysCache(ptr noundef nonnull %3) #8
  %14 = tail call ptr @GetFdwRoutineByServerId(i32 noundef %13)
  ret ptr %14
}